target datalayout = "e-m:e-p270:32:32-p271:32:32-p272:64:64-i64:64-i128:128-f80:128-n8:16:32:64-S128"
target triple = "x86_64-pc-linux-gnu"

%struct._proto_node = type { ptr, ptr, ptr, ptr, ptr, ptr, ptr }
%struct.tree_data_t = type { ptr, i8, i8, i32, ptr, i32, i32 }

; Function Attrs: nounwind null_pointer_is_valid sspstrong uwtable
define hidden void @proto_tree_set_fake_protocols(ptr noundef %0, i1 noundef zeroext %1) #3 {
  %3 = alloca ptr, align 8
  %4 = alloca i8, align 1
  store ptr %0, ptr %3, align 8
  %5 = zext i1 %1 to i8
  store i8 %5, ptr %4, align 1
  %6 = load ptr, ptr %3, align 8
  %7 = icmp ne ptr %6, null
  br i1 %7, label %8, label %16

8:                                                ; preds = %2
  %9 = load i8, ptr %4, align 1, !range !10, !noundef !11
  %10 = trunc i8 %9 to i1
  %11 = load ptr, ptr %3, align 8
  %12 = getelementptr inbounds nuw %struct._proto_node, ptr %11, i32 0, i32 6
  %13 = load ptr, ptr %12, align 8
  %14 = getelementptr inbounds nuw %struct.tree_data_t, ptr %13, i32 0, i32 2
  %15 = zext i1 %10 to i8
  store i8 %15, ptr %14, align 1
  br label %16

16:                                               ; preds = %8, %2
  ret void
}