; Function Attrs: mustprogress nofree norecurse nosync nounwind null_pointer_is_valid sspstrong willreturn memory(write, argmem: readwrite, inaccessiblemem: none) uwtable
define hidden void @proto_tree_set_fake_protocols(ptr noundef readonly captures(address_is_null) %0, i1 noundef zeroext %1) local_unnamed_addr #6 {
  %.not = icmp eq ptr %0, null
  br i1 %.not, label %8, label %3

3:                                                ; preds = %2
  %4 = zext i1 %1 to i8
  %5 = getelementptr inbounds nuw i8, ptr %0, i64 48
  %6 = load ptr, ptr %5, align 8
  %7 = getelementptr inbounds nuw i8, ptr %6, i64 9
  store i8 %4, ptr %7, align 1
  br label %8

8:                                                ; preds = %3, %2
  ret void
}